target datalayout = "e-m:e-p270:32:32-p271:32:32-p272:64:64-i64:64-i128:128-f80:128-n8:16:32:64-S128"
target triple = "x86_64-unknown-linux-gnu"

%"class.icu_75::ReorderingBuffer" = type { ptr, ptr, ptr, ptr, ptr, i32, i8, ptr, ptr }
%"class.icu_75::UnicodeString" = type { %"class.icu_75::Replaceable", %"union.icu_75::UnicodeString::StackBufferOrFields" }
%"class.icu_75::Replaceable" = type { %"class.icu_75::UObject" }
%"class.icu_75::UObject" = type { ptr }
%"union.icu_75::UnicodeString::StackBufferOrFields" = type { %struct.anon.0, [32 x i8] }
%struct.anon.0 = type { i16, i32, i32, ptr }

; Function Attrs: mustprogress nounwind uwtable
define linkonce_odr noundef i32 @_ZNK6icu_7513UnicodeString11getCapacityEv(ptr noundef nonnull align 8 dereferenceable(64) %this) #2 comdat align 2 {
entry:
  %this.addr = alloca ptr, align 8
  store ptr %this, ptr %this.addr, align 8
  %this1 = load ptr, ptr %this.addr, align 8
  %fUnion = getelementptr inbounds %"class.icu_75::UnicodeString", ptr %this1, i32 0, i32 1
  %fLengthAndFlags = getelementptr inbounds %struct.anon.0, ptr %fUnion, i32 0, i32 0
  %0 = load i16, ptr %fLengthAndFlags, align 8
  %conv = sext i16 %0 to i32
  %and = and i32 %conv, 2
  %tobool = icmp ne i32 %and, 0
  br i1 %tobool, label %cond.true, label %cond.false

cond.true:                                        ; preds = %entry
  br label %cond.end

cond.false:                                       ; preds = %entry
  %fUnion2 = getelementptr inbounds %"class.icu_75::UnicodeString", ptr %this1, i32 0, i32 1
  %fCapacity = getelementptr inbounds %struct.anon.0, ptr %fUnion2, i32 0, i32 2
  %1 = load i32, ptr %fCapacity, align 8
  br label %cond.end

cond.end:                                         ; preds = %cond.false, %cond.true
  %cond = phi i32 [ 27, %cond.true ], [ %1, %cond.false ]
  ret i32 %cond
}

; Function Attrs: mustprogress uwtable
define void @_ZN6icu_7516ReorderingBuffer12removeSuffixEi(ptr noundef nonnull align 8 dereferenceable(64) %this, i32 noundef %suffixLength) #0 align 2 {
entry:
  %this.addr = alloca ptr, align 8
  %suffixLength.addr = alloca i32, align 4
  store ptr %this, ptr %this.addr, align 8
  store i32 %suffixLength, ptr %suffixLength.addr, align 4
  %this1 = load ptr, ptr %this.addr, align 8
  %0 = load i32, ptr %suffixLength.addr, align 4
  %conv = sext i32 %0 to i64
  %limit = getelementptr inbounds %"class.icu_75::ReorderingBuffer", ptr %this1, i32 0, i32 4
  %1 = load ptr, ptr %limit, align 8
  %start = getelementptr inbounds %"class.icu_75::ReorderingBuffer", ptr %this1, i32 0, i32 2
  %2 = load ptr, ptr %start, align 8
  %sub.ptr.lhs.cast = ptrtoint ptr %1 to i64
  %sub.ptr.rhs.cast = ptrtoint ptr %2 to i64
  %sub.ptr.sub = sub i64 %sub.ptr.lhs.cast, %sub.ptr.rhs.cast
  %sub.ptr.div = sdiv exact i64 %sub.ptr.sub, 2
  %cmp = icmp slt i64 %conv, %sub.ptr.div
  br i1 %cmp, label %if.then, label %if.else

if.then:                                          ; preds = %entry
  %3 = load i32, ptr %suffixLength.addr, align 4
  %limit2 = getelementptr inbounds %"class.icu_75::ReorderingBuffer", ptr %this1, i32 0, i32 4
  %4 = load ptr, ptr %limit2, align 8
  %idx.ext = sext i32 %3 to i64
  %idx.neg = sub i64 0, %idx.ext
  %add.ptr = getelementptr inbounds i16, ptr %4, i64 %idx.neg
  store ptr %add.ptr, ptr %limit2, align 8
  %5 = load i32, ptr %suffixLength.addr, align 4
  %remainingCapacity = getelementptr inbounds %"class.icu_75::ReorderingBuffer", ptr %this1, i32 0, i32 5
  %6 = load i32, ptr %remainingCapacity, align 8
  %add = add nsw i32 %6, %5
  store i32 %add, ptr %remainingCapacity, align 8
  br label %if.end

if.else:                                          ; preds = %entry
  %start3 = getelementptr inbounds %"class.icu_75::ReorderingBuffer", ptr %this1, i32 0, i32 2
  %7 = load ptr, ptr %start3, align 8
  %limit4 = getelementptr inbounds %"class.icu_75::ReorderingBuffer", ptr %this1, i32 0, i32 4
  store ptr %7, ptr %limit4, align 8
  %str = getelementptr inbounds %"class.icu_75::ReorderingBuffer", ptr %this1, i32 0, i32 1
  %8 = load ptr, ptr %str, align 8
  %call = call noundef i32 @_ZNK6icu_7513UnicodeString11getCapacityEv(ptr noundef nonnull align 8 dereferenceable(64) %8)
  %remainingCapacity5 = getelementptr inbounds %"class.icu_75::ReorderingBuffer", ptr %this1, i32 0, i32 5
  store i32 %call, ptr %remainingCapacity5, align 8
  br label %if.end

if.end:                                           ; preds = %if.else, %if.then
  %lastCC = getelementptr inbounds %"class.icu_75::ReorderingBuffer", ptr %this1, i32 0, i32 6
  store i8 0, ptr %lastCC, align 4
  %limit6 = getelementptr inbounds %"class.icu_75::ReorderingBuffer", ptr %this1, i32 0, i32 4
  %9 = load ptr, ptr %limit6, align 8
  %reorderStart = getelementptr inbounds %"class.icu_75::ReorderingBuffer", ptr %this1, i32 0, i32 3
  store ptr %9, ptr %reorderStart, align 8
  ret void
}