; Function Attrs: mustprogress nofree norecurse nosync nounwind willreturn memory(read, argmem: readwrite, inaccessiblemem: none) uwtable
define void @_ZN6icu_7516ReorderingBuffer12removeSuffixEi(ptr nocapture noundef nonnull align 8 dereferenceable(64) %this, i32 noundef %suffixLength) local_unnamed_addr #3 align 2 {
entry:
  %conv = sext i32 %suffixLength to i64
  %limit = getelementptr inbounds i8, ptr %this, i64 32
  %0 = load ptr, ptr %limit, align 8
  %start = getelementptr inbounds i8, ptr %this, i64 16
  %1 = load ptr, ptr %start, align 8
  %sub.ptr.lhs.cast = ptrtoint ptr %0 to i64
  %sub.ptr.rhs.cast = ptrtoint ptr %1 to i64
  %sub.ptr.sub = sub i64 %sub.ptr.lhs.cast, %sub.ptr.rhs.cast
  %sub.ptr.div = ashr exact i64 %sub.ptr.sub, 1
  %cmp = icmp sgt i64 %sub.ptr.div, %conv
  br i1 %cmp, label %if.then, label %if.else

if.then:                                          ; preds = %entry
  %idx.neg = sub nsw i64 0, %conv
  %add.ptr = getelementptr inbounds i16, ptr %0, i64 %idx.neg
  store ptr %add.ptr, ptr %limit, align 8
  %remainingCapacity = getelementptr inbounds i8, ptr %this, i64 40
  %2 = load i32, ptr %remainingCapacity, align 8
  %add = add nsw i32 %2, %suffixLength
  store i32 %add, ptr %remainingCapacity, align 8
  br label %if.end

if.else:                                          ; preds = %entry
  store ptr %1, ptr %limit, align 8
  %str = getelementptr inbounds i8, ptr %this, i64 8
  %3 = load ptr, ptr %str, align 8
  %fUnion.i = getelementptr inbounds i8, ptr %3, i64 8
  %4 = load i16, ptr %fUnion.i, align 8
  %5 = and i16 %4, 2
  %tobool.not.i = icmp eq i16 %5, 0
  %fCapacity.i = getelementptr inbounds i8, ptr %3, i64 16
  %6 = load i32, ptr %fCapacity.i, align 8
  %cond.i = select i1 %tobool.not.i, i32 %6, i32 27
  %remainingCapacity5 = getelementptr inbounds i8, ptr %this, i64 40
  store i32 %cond.i, ptr %remainingCapacity5, align 8
  br label %if.end

if.end:                                           ; preds = %if.else, %if.then
  %7 = phi ptr [ %1, %if.else ], [ %add.ptr, %if.then ]
  %lastCC = getelementptr inbounds i8, ptr %this, i64 44
  store i8 0, ptr %lastCC, align 4
  %reorderStart = getelementptr inbounds i8, ptr %this, i64 24
  store ptr %7, ptr %reorderStart, align 8
  ret void
}